; Function Attrs: mustprogress nofree norecurse nosync nounwind willreturn memory(argmem: write) uwtable
define void @_ZN32pxrInternal_v0_24__pxrReserved__27SdfSimpleLayerStateDelegateC2Ev(ptr nocapture noundef nonnull writeonly align 8 dereferenceable(41) %0) unnamed_addr #0 align 2 personality ptr @__gxx_personality_v0 {
  %2 = getelementptr inbounds nuw i8, ptr %0, i64 8
  store i32 1, ptr %2, align 8
  %3 = getelementptr inbounds i8, ptr %0, i64 16
  tail call void @llvm.memset.p0.i64(ptr noundef nonnull align 8 dereferenceable(24) %3, i8 0, i64 24, i1 false)
  store ptr getelementptr inbounds inrange(-16, 152) (i8, ptr @_ZTVN32pxrInternal_v0_24__pxrReserved__27SdfSimpleLayerStateDelegateE, i64 16), ptr %0, align 8
  %4 = getelementptr inbounds nuw i8, ptr %0, i64 40
  store i8 0, ptr %4, align 8
  ret void
}